target datalayout = "e-m:e-p270:32:32-p271:32:32-p272:64:64-i64:64-i128:128-f80:128-n8:16:32:64-S128"
target triple = "x86_64-pc-linux-gnu"

%"struct.tinyxml2::Entity" = type { ptr, i32, i8 }
%"class.tinyxml2::XMLPrinter" = type { %"class.tinyxml2::XMLVisitor", i8, %"class.tinyxml2::DynArray.7", i8, ptr, i32, i32, i8, i8, [64 x i8], [64 x i8], [6 x i8], %"class.tinyxml2::DynArray.8" }
%"class.tinyxml2::XMLVisitor" = type { ptr }
%"class.tinyxml2::DynArray.7" = type { ptr, [10 x ptr], i32, i32 }
%"class.tinyxml2::DynArray.8" = type <{ ptr, [20 x i8], i32, i32, [4 x i8] }>

; Function Attrs: mustprogress uwtable
define linkonce_odr hidden void @_ZN8tinyxml28DynArrayIcLi20EE14EnsureCapacityEi(ptr noundef nonnull align 8 dereferenceable(36) %0, i32 noundef %1) #2 comdat align 2 {
  %3 = alloca ptr, align 8
  %4 = alloca i32, align 4
  %5 = alloca i32, align 4
  %6 = alloca ptr, align 8
  store ptr %0, ptr %3, align 8, !tbaa !225
  store i32 %1, ptr %4, align 4, !tbaa !15
  %7 = load ptr, ptr %3, align 8
  %8 = load i32, ptr %4, align 4, !tbaa !15
  %9 = getelementptr inbounds nuw %"class.tinyxml2::DynArray.8", ptr %7, i32 0, i32 2
  %10 = load i32, ptr %9, align 4, !tbaa !228
  %11 = icmp sgt i32 %8, %10
  br i1 %11, label %12, label %41

12:                                               ; preds = %2
  call void @llvm.lifetime.start.p0(i64 4, ptr %5) #18
  %13 = load i32, ptr %4, align 4, !tbaa !15
  %14 = mul nsw i32 %13, 2
  store i32 %14, ptr %5, align 4, !tbaa !15
  call void @llvm.lifetime.start.p0(i64 8, ptr %6) #18
  %15 = load i32, ptr %5, align 4, !tbaa !15
  %16 = sext i32 %15 to i64
  %17 = call noalias noundef nonnull ptr @_Znam(i64 noundef %16) #20
  store ptr %17, ptr %6, align 8, !tbaa !14
  %18 = load ptr, ptr %6, align 8, !tbaa !14
  %19 = getelementptr inbounds nuw %"class.tinyxml2::DynArray.8", ptr %7, i32 0, i32 0
  %20 = load ptr, ptr %19, align 8, !tbaa !227
  %21 = getelementptr inbounds nuw %"class.tinyxml2::DynArray.8", ptr %7, i32 0, i32 3
  %22 = load i32, ptr %21, align 8, !tbaa !229
  %23 = sext i32 %22 to i64
  %24 = mul i64 1, %23
  call void @llvm.memcpy.p0.p0.i64(ptr align 1 %18, ptr align 1 %20, i64 %24, i1 false)
  %25 = getelementptr inbounds nuw %"class.tinyxml2::DynArray.8", ptr %7, i32 0, i32 0
  %26 = load ptr, ptr %25, align 8, !tbaa !227
  %27 = getelementptr inbounds nuw %"class.tinyxml2::DynArray.8", ptr %7, i32 0, i32 1
  %28 = getelementptr inbounds [20 x i8], ptr %27, i64 0, i64 0
  %29 = icmp ne ptr %26, %28
  br i1 %29, label %30, label %36

30:                                               ; preds = %12
  %31 = getelementptr inbounds nuw %"class.tinyxml2::DynArray.8", ptr %7, i32 0, i32 0
  %32 = load ptr, ptr %31, align 8, !tbaa !227
  %33 = icmp eq ptr %32, null
  br i1 %33, label %35, label %34

34:                                               ; preds = %30
  call void @_ZdaPv(ptr noundef %32) #17
  br label %35

35:                                               ; preds = %34, %30
  br label %36

36:                                               ; preds = %35, %12
  %37 = load ptr, ptr %6, align 8, !tbaa !14
  %38 = getelementptr inbounds nuw %"class.tinyxml2::DynArray.8", ptr %7, i32 0, i32 0
  store ptr %37, ptr %38, align 8, !tbaa !227
  %39 = load i32, ptr %5, align 4, !tbaa !15
  %40 = getelementptr inbounds nuw %"class.tinyxml2::DynArray.8", ptr %7, i32 0, i32 2
  store i32 %39, ptr %40, align 4, !tbaa !228
  call void @llvm.lifetime.end.p0(i64 8, ptr %6) #18
  call void @llvm.lifetime.end.p0(i64 4, ptr %5) #18
  br label %41

41:                                               ; preds = %36, %2
  ret void
}

; Function Attrs: mustprogress nounwind uwtable
define linkonce_odr hidden void @_ZN8tinyxml210XMLVisitorD2Ev(ptr noundef nonnull align 8 dereferenceable(8) %0) unnamed_addr #0 comdat align 2 {
  %2 = alloca ptr, align 8
  store ptr %0, ptr %2, align 8, !tbaa !108
  ret void
}

; Function Attrs: mustprogress nounwind uwtable
define linkonce_odr hidden void @_ZN8tinyxml28DynArrayIPKcLi10EED2Ev(ptr noundef nonnull align 8 dereferenceable(96) %0) unnamed_addr #0 comdat align 2 {
  %2 = alloca ptr, align 8
  store ptr %0, ptr %2, align 8, !tbaa !220
  %3 = load ptr, ptr %2, align 8
  %4 = getelementptr inbounds nuw %"class.tinyxml2::DynArray.7", ptr %3, i32 0, i32 0
  %5 = load ptr, ptr %4, align 8, !tbaa !222
  %6 = getelementptr inbounds nuw %"class.tinyxml2::DynArray.7", ptr %3, i32 0, i32 1
  %7 = getelementptr inbounds [10 x ptr], ptr %6, i64 0, i64 0
  %8 = icmp ne ptr %5, %7
  br i1 %8, label %9, label %15

9:                                                ; preds = %1
  %10 = getelementptr inbounds nuw %"class.tinyxml2::DynArray.7", ptr %3, i32 0, i32 0
  %11 = load ptr, ptr %10, align 8, !tbaa !222
  %12 = icmp eq ptr %11, null
  br i1 %12, label %14, label %13

13:                                               ; preds = %9
  call void @_ZdaPv(ptr noundef %11) #17
  br label %14

14:                                               ; preds = %13, %9
  br label %15

15:                                               ; preds = %14, %1
  ret void
}

; Function Attrs: mustprogress nounwind uwtable
define linkonce_odr hidden void @_ZN8tinyxml28DynArrayIcLi20EED2Ev(ptr noundef nonnull align 8 dereferenceable(36) %0) unnamed_addr #0 comdat align 2 {
  %2 = alloca ptr, align 8
  store ptr %0, ptr %2, align 8, !tbaa !225
  %3 = load ptr, ptr %2, align 8
  %4 = getelementptr inbounds nuw %"class.tinyxml2::DynArray.8", ptr %3, i32 0, i32 0
  %5 = load ptr, ptr %4, align 8, !tbaa !227
  %6 = getelementptr inbounds nuw %"class.tinyxml2::DynArray.8", ptr %3, i32 0, i32 1
  %7 = getelementptr inbounds [20 x i8], ptr %6, i64 0, i64 0
  %8 = icmp ne ptr %5, %7
  br i1 %8, label %9, label %15

9:                                                ; preds = %1
  %10 = getelementptr inbounds nuw %"class.tinyxml2::DynArray.8", ptr %3, i32 0, i32 0
  %11 = load ptr, ptr %10, align 8, !tbaa !227
  %12 = icmp eq ptr %11, null
  br i1 %12, label %14, label %13

13:                                               ; preds = %9
  call void @_ZdaPv(ptr noundef %11) #17
  br label %14

14:                                               ; preds = %13, %9
  br label %15

15:                                               ; preds = %14, %1
  ret void
}

; Function Attrs: mustprogress uwtable
define linkonce_odr hidden void @_ZN8tinyxml28DynArrayIcLi20EE4PushEc(ptr noundef nonnull align 8 dereferenceable(36) %0, i8 noundef signext %1) #2 comdat align 2 {
  %3 = alloca ptr, align 8
  %4 = alloca i8, align 1
  store ptr %0, ptr %3, align 8, !tbaa !225
  store i8 %1, ptr %4, align 1, !tbaa !20
  %5 = load ptr, ptr %3, align 8
  %6 = getelementptr inbounds nuw %"class.tinyxml2::DynArray.8", ptr %5, i32 0, i32 3
  %7 = load i32, ptr %6, align 8, !tbaa !229
  %8 = add nsw i32 %7, 1
  call void @_ZN8tinyxml28DynArrayIcLi20EE14EnsureCapacityEi(ptr noundef nonnull align 8 dereferenceable(36) %5, i32 noundef %8)
  %9 = load i8, ptr %4, align 1, !tbaa !20
  %10 = getelementptr inbounds nuw %"class.tinyxml2::DynArray.8", ptr %5, i32 0, i32 0
  %11 = load ptr, ptr %10, align 8, !tbaa !227
  %12 = getelementptr inbounds nuw %"class.tinyxml2::DynArray.8", ptr %5, i32 0, i32 3
  %13 = load i32, ptr %12, align 8, !tbaa !229
  %14 = sext i32 %13 to i64
  %15 = getelementptr inbounds i8, ptr %11, i64 %14
  store i8 %9, ptr %15, align 1, !tbaa !20
  %16 = getelementptr inbounds nuw %"class.tinyxml2::DynArray.8", ptr %5, i32 0, i32 3
  %17 = load i32, ptr %16, align 8, !tbaa !229
  %18 = add nsw i32 %17, 1
  store i32 %18, ptr %16, align 8, !tbaa !229
  ret void
}

; Function Attrs: mustprogress nounwind uwtable
define linkonce_odr hidden void @_ZN8tinyxml28DynArrayIcLi20EEC2Ev(ptr noundef nonnull align 8 dereferenceable(36) %0) unnamed_addr #0 comdat align 2 {
  %2 = alloca ptr, align 8
  store ptr %0, ptr %2, align 8, !tbaa !225
  %3 = load ptr, ptr %2, align 8
  %4 = getelementptr inbounds nuw %"class.tinyxml2::DynArray.8", ptr %3, i32 0, i32 0
  %5 = getelementptr inbounds nuw %"class.tinyxml2::DynArray.8", ptr %3, i32 0, i32 1
  %6 = getelementptr inbounds [20 x i8], ptr %5, i64 0, i64 0
  store ptr %6, ptr %4, align 8, !tbaa !227
  %7 = getelementptr inbounds nuw %"class.tinyxml2::DynArray.8", ptr %3, i32 0, i32 2
  store i32 20, ptr %7, align 4, !tbaa !228
  %8 = getelementptr inbounds nuw %"class.tinyxml2::DynArray.8", ptr %3, i32 0, i32 3
  store i32 0, ptr %8, align 8, !tbaa !229
  ret void
}

; Function Attrs: mustprogress nounwind uwtable
define linkonce_odr hidden void @_ZN8tinyxml28DynArrayIPKcLi10EEC2Ev(ptr noundef nonnull align 8 dereferenceable(96) %0) unnamed_addr #0 comdat align 2 {
  %2 = alloca ptr, align 8
  store ptr %0, ptr %2, align 8, !tbaa !220
  %3 = load ptr, ptr %2, align 8
  %4 = getelementptr inbounds nuw %"class.tinyxml2::DynArray.7", ptr %3, i32 0, i32 0
  %5 = getelementptr inbounds nuw %"class.tinyxml2::DynArray.7", ptr %3, i32 0, i32 1
  %6 = getelementptr inbounds [10 x ptr], ptr %5, i64 0, i64 0
  store ptr %6, ptr %4, align 8, !tbaa !222
  %7 = getelementptr inbounds nuw %"class.tinyxml2::DynArray.7", ptr %3, i32 0, i32 2
  store i32 10, ptr %7, align 8, !tbaa !223
  %8 = getelementptr inbounds nuw %"class.tinyxml2::DynArray.7", ptr %3, i32 0, i32 3
  store i32 0, ptr %8, align 4, !tbaa !224
  ret void
}

; Function Attrs: inlinehint mustprogress nounwind uwtable
define linkonce_odr hidden void @_ZN8tinyxml210XMLVisitorC2Ev(ptr noundef nonnull align 8 dereferenceable(8) %0) unnamed_addr #8 comdat align 2 {
  %2 = alloca ptr, align 8
  store ptr %0, ptr %2, align 8, !tbaa !108
  %3 = load ptr, ptr %2, align 8
  store ptr getelementptr inbounds inrange(-16, 80) ({ [12 x ptr] }, ptr @_ZTVN8tinyxml210XMLVisitorE, i32 0, i32 0, i32 2), ptr %3, align 8, !tbaa !91
  ret void
}

; Function Attrs: mustprogress uwtable
define void @_ZN8tinyxml210XMLPrinterC2EP8_IO_FILEbi(ptr noundef nonnull align 8 dereferenceable(312) %0, ptr noundef %1, i1 noundef zeroext %2, i32 noundef %3) unnamed_addr #2 align 2 personality ptr @__gxx_personality_v0 {
  %5 = alloca ptr, align 8
  %6 = alloca ptr, align 8
  %7 = alloca i8, align 1
  %8 = alloca i32, align 4
  %9 = alloca ptr, align 8
  %10 = alloca i32, align 4
  %11 = alloca i32, align 4
  %12 = alloca i32, align 4
  %13 = alloca i8, align 1
  %14 = alloca i8, align 1
  store ptr %0, ptr %5, align 8, !tbaa !194
  store ptr %1, ptr %6, align 8, !tbaa !192
  %15 = zext i1 %2 to i8
  store i8 %15, ptr %7, align 1, !tbaa !26
  store i32 %3, ptr %8, align 4, !tbaa !15
  %16 = load ptr, ptr %5, align 8
  call void @_ZN8tinyxml210XMLVisitorC2Ev(ptr noundef nonnull align 8 dereferenceable(8) %16) #18
  store ptr getelementptr inbounds inrange(-16, 128) ({ [18 x ptr] }, ptr @_ZTVN8tinyxml210XMLPrinterE, i32 0, i32 0, i32 2), ptr %16, align 8, !tbaa !91
  %17 = getelementptr inbounds nuw %"class.tinyxml2::XMLPrinter", ptr %16, i32 0, i32 1
  store i8 0, ptr %17, align 8, !tbaa !206
  %18 = getelementptr inbounds nuw %"class.tinyxml2::XMLPrinter", ptr %16, i32 0, i32 2
  invoke void @_ZN8tinyxml28DynArrayIPKcLi10EEC2Ev(ptr noundef nonnull align 8 dereferenceable(96) %18)
          to label %19 unwind label %37

19:                                               ; preds = %4
  %20 = getelementptr inbounds nuw %"class.tinyxml2::XMLPrinter", ptr %16, i32 0, i32 3
  store i8 1, ptr %20, align 8, !tbaa !212
  %21 = getelementptr inbounds nuw %"class.tinyxml2::XMLPrinter", ptr %16, i32 0, i32 4
  %22 = load ptr, ptr %6, align 8, !tbaa !192
  store ptr %22, ptr %21, align 8, !tbaa !213
  %23 = getelementptr inbounds nuw %"class.tinyxml2::XMLPrinter", ptr %16, i32 0, i32 5
  %24 = load i32, ptr %8, align 4, !tbaa !15
  store i32 %24, ptr %23, align 8, !tbaa !214
  %25 = getelementptr inbounds nuw %"class.tinyxml2::XMLPrinter", ptr %16, i32 0, i32 6
  store i32 -1, ptr %25, align 4, !tbaa !215
  %26 = getelementptr inbounds nuw %"class.tinyxml2::XMLPrinter", ptr %16, i32 0, i32 7
  store i8 1, ptr %26, align 8, !tbaa !216
  %27 = getelementptr inbounds nuw %"class.tinyxml2::XMLPrinter", ptr %16, i32 0, i32 8
  %28 = load i8, ptr %7, align 1, !tbaa !26, !range !35, !noundef !36
  %29 = trunc i8 %28 to i1
  %30 = zext i1 %29 to i8
  store i8 %30, ptr %27, align 1, !tbaa !217
  %31 = getelementptr inbounds nuw %"class.tinyxml2::XMLPrinter", ptr %16, i32 0, i32 12
  invoke void @_ZN8tinyxml28DynArrayIcLi20EEC2Ev(ptr noundef nonnull align 8 dereferenceable(36) %31)
          to label %32 unwind label %41

32:                                               ; preds = %19
  call void @llvm.lifetime.start.p0(i64 4, ptr %11) #18
  store i32 0, ptr %11, align 4, !tbaa !15
  br label %33

33:                                               ; preds = %54, %32
  %34 = load i32, ptr %11, align 4, !tbaa !15
  %35 = icmp slt i32 %34, 64
  br i1 %35, label %45, label %36

36:                                               ; preds = %33
  call void @llvm.lifetime.end.p0(i64 4, ptr %11) #18
  br label %57

37:                                               ; preds = %4
  %38 = landingpad { ptr, i32 }
          cleanup
  %39 = extractvalue { ptr, i32 } %38, 0
  store ptr %39, ptr %9, align 8
  %40 = extractvalue { ptr, i32 } %38, 1
  store i32 %40, ptr %10, align 4
  br label %90

41:                                               ; preds = %19
  %42 = landingpad { ptr, i32 }
          cleanup
  %43 = extractvalue { ptr, i32 } %42, 0
  store ptr %43, ptr %9, align 8
  %44 = extractvalue { ptr, i32 } %42, 1
  store i32 %44, ptr %10, align 4
  br label %89

45:                                               ; preds = %33
  %46 = getelementptr inbounds nuw %"class.tinyxml2::XMLPrinter", ptr %16, i32 0, i32 9
  %47 = load i32, ptr %11, align 4, !tbaa !15
  %48 = sext i32 %47 to i64
  %49 = getelementptr inbounds [64 x i8], ptr %46, i64 0, i64 %48
  store i8 0, ptr %49, align 1, !tbaa !26
  %50 = getelementptr inbounds nuw %"class.tinyxml2::XMLPrinter", ptr %16, i32 0, i32 10
  %51 = load i32, ptr %11, align 4, !tbaa !15
  %52 = sext i32 %51 to i64
  %53 = getelementptr inbounds [64 x i8], ptr %50, i64 0, i64 %52
  store i8 0, ptr %53, align 1, !tbaa !26
  br label %54

54:                                               ; preds = %45
  %55 = load i32, ptr %11, align 4, !tbaa !15
  %56 = add nsw i32 %55, 1
  store i32 %56, ptr %11, align 4, !tbaa !15
  br label %33, !llvm.loop !218

57:                                               ; preds = %36
  call void @llvm.lifetime.start.p0(i64 4, ptr %12) #18
  store i32 0, ptr %12, align 4, !tbaa !15
  br label %58

58:                                               ; preds = %73, %57
  %59 = load i32, ptr %12, align 4, !tbaa !15
  %60 = icmp slt i32 %59, 5
  br i1 %60, label %62, label %61

61:                                               ; preds = %58
  call void @llvm.lifetime.end.p0(i64 4, ptr %12) #18
  br label %76

62:                                               ; preds = %58
  call void @llvm.lifetime.start.p0(i64 1, ptr %13) #18
  %63 = load i32, ptr %12, align 4, !tbaa !15
  %64 = sext i32 %63 to i64
  %65 = getelementptr inbounds [5 x %"struct.tinyxml2::Entity"], ptr @_ZN8tinyxml2L8entitiesE, i64 0, i64 %64
  %66 = getelementptr inbounds nuw %"struct.tinyxml2::Entity", ptr %65, i32 0, i32 2
  %67 = load i8, ptr %66, align 4, !tbaa !33
  store i8 %67, ptr %13, align 1, !tbaa !20
  call void @llvm.lifetime.start.p0(i64 1, ptr %14) #18
  %68 = load i8, ptr %13, align 1, !tbaa !20
  store i8 %68, ptr %14, align 1, !tbaa !20
  %69 = getelementptr inbounds nuw %"class.tinyxml2::XMLPrinter", ptr %16, i32 0, i32 9
  %70 = load i8, ptr %14, align 1, !tbaa !20
  %71 = zext i8 %70 to i64
  %72 = getelementptr inbounds nuw [64 x i8], ptr %69, i64 0, i64 %71
  store i8 1, ptr %72, align 1, !tbaa !26
  call void @llvm.lifetime.end.p0(i64 1, ptr %14) #18
  call void @llvm.lifetime.end.p0(i64 1, ptr %13) #18
  br label %73

73:                                               ; preds = %62
  %74 = load i32, ptr %12, align 4, !tbaa !15
  %75 = add nsw i32 %74, 1
  store i32 %75, ptr %12, align 4, !tbaa !15
  br label %58, !llvm.loop !219

76:                                               ; preds = %61
  %77 = getelementptr inbounds nuw %"class.tinyxml2::XMLPrinter", ptr %16, i32 0, i32 10
  %78 = getelementptr inbounds nuw [64 x i8], ptr %77, i64 0, i64 38
  store i8 1, ptr %78, align 2, !tbaa !26
  %79 = getelementptr inbounds nuw %"class.tinyxml2::XMLPrinter", ptr %16, i32 0, i32 10
  %80 = getelementptr inbounds nuw [64 x i8], ptr %79, i64 0, i64 60
  store i8 1, ptr %80, align 2, !tbaa !26
  %81 = getelementptr inbounds nuw %"class.tinyxml2::XMLPrinter", ptr %16, i32 0, i32 10
  %82 = getelementptr inbounds nuw [64 x i8], ptr %81, i64 0, i64 62
  store i8 1, ptr %82, align 2, !tbaa !26
  %83 = getelementptr inbounds nuw %"class.tinyxml2::XMLPrinter", ptr %16, i32 0, i32 12
  invoke void @_ZN8tinyxml28DynArrayIcLi20EE4PushEc(ptr noundef nonnull align 8 dereferenceable(36) %83, i8 noundef signext 0)
          to label %84 unwind label %85

84:                                               ; preds = %76
  ret void

85:                                               ; preds = %76
  %86 = landingpad { ptr, i32 }
          cleanup
  %87 = extractvalue { ptr, i32 } %86, 0
  store ptr %87, ptr %9, align 8
  %88 = extractvalue { ptr, i32 } %86, 1
  store i32 %88, ptr %10, align 4
  call void @_ZN8tinyxml28DynArrayIcLi20EED2Ev(ptr noundef nonnull align 8 dereferenceable(36) %31) #18
  br label %89

89:                                               ; preds = %85, %41
  call void @_ZN8tinyxml28DynArrayIPKcLi10EED2Ev(ptr noundef nonnull align 8 dereferenceable(96) %18) #18
  br label %90

90:                                               ; preds = %89, %37
  call void @_ZN8tinyxml210XMLVisitorD2Ev(ptr noundef nonnull align 8 dereferenceable(8) %16) #18
  br label %91

91:                                               ; preds = %90
  %92 = load ptr, ptr %9, align 8
  %93 = load i32, ptr %10, align 4
  %94 = insertvalue { ptr, i32 } poison, ptr %92, 0
  %95 = insertvalue { ptr, i32 } %94, i32 %93, 1
  resume { ptr, i32 } %95
}