; Function Attrs: mustprogress nofree norecurse nosync nounwind memory(argmem: write) uwtable
define void @_ZN8tinyxml210XMLPrinterC2EP8_IO_FILEbi(ptr noundef nonnull align 8 dereferenceable(312) initializes((0, 9)) %0, ptr noundef %1, i1 noundef zeroext %2, i32 noundef %3) unnamed_addr #26 align 2 personality ptr @__gxx_personality_v0 {
.preheader:
  %4 = zext i1 %2 to i8
  store ptr getelementptr inbounds nuw inrange(-16, 128) (i8, ptr @_ZTVN8tinyxml210XMLPrinterE, i64 16), ptr %0, align 8, !tbaa !63
  %5 = getelementptr inbounds nuw i8, ptr %0, i64 8
  store i8 0, ptr %5, align 8, !tbaa !157
  %6 = getelementptr inbounds nuw i8, ptr %0, i64 16
  %7 = getelementptr inbounds nuw i8, ptr %0, i64 24
  store ptr %7, ptr %6, align 8, !tbaa !152
  %8 = getelementptr inbounds nuw i8, ptr %0, i64 104
  store i32 10, ptr %8, align 8, !tbaa !160
  %9 = getelementptr inbounds nuw i8, ptr %0, i64 108
  store i32 0, ptr %9, align 4, !tbaa !161
  %10 = getelementptr inbounds nuw i8, ptr %0, i64 112
  store i8 1, ptr %10, align 8, !tbaa !162
  %11 = getelementptr inbounds nuw i8, ptr %0, i64 120
  store ptr %1, ptr %11, align 8, !tbaa !163
  %12 = getelementptr inbounds nuw i8, ptr %0, i64 128
  store i32 %3, ptr %12, align 8, !tbaa !164
  %13 = getelementptr inbounds nuw i8, ptr %0, i64 132
  store i32 -1, ptr %13, align 4, !tbaa !165
  %14 = getelementptr inbounds nuw i8, ptr %0, i64 136
  store i8 1, ptr %14, align 8, !tbaa !166
  %15 = getelementptr inbounds nuw i8, ptr %0, i64 137
  store i8 %4, ptr %15, align 1, !tbaa !167
  %16 = getelementptr inbounds nuw i8, ptr %0, i64 272
  %17 = getelementptr inbounds nuw i8, ptr %0, i64 280
  store ptr %17, ptr %16, align 8, !tbaa !150
  %18 = getelementptr inbounds nuw i8, ptr %0, i64 300
  store i32 20, ptr %18, align 4, !tbaa !168
  %19 = getelementptr inbounds nuw i8, ptr %0, i64 138
  tail call void @llvm.memset.p0.i64(ptr noundef nonnull align 2 dereferenceable(128) %19, i8 0, i64 128, i1 false)
  br label %20

20:                                               ; preds = %.preheader, %20
  %indvars.iv = phi i64 [ 0, %.preheader ], [ %indvars.iv.next, %20 ]
  %21 = getelementptr inbounds nuw [5 x %"struct.tinyxml2::Entity"], ptr @_ZN8tinyxml2L8entitiesE, i64 0, i64 %indvars.iv, i32 2
  %22 = load i8, ptr %21, align 4, !tbaa !22
  %23 = zext i8 %22 to i64
  %24 = getelementptr inbounds nuw [64 x i8], ptr %19, i64 0, i64 %23
  store i8 1, ptr %24, align 1, !tbaa !30
  %indvars.iv.next = add nuw nsw i64 %indvars.iv, 1
  %exitcond.not = icmp eq i64 %indvars.iv.next, 5
  br i1 %exitcond.not, label %25, label %20, !llvm.loop !169

25:                                               ; preds = %20
  %26 = getelementptr inbounds nuw i8, ptr %0, i64 304
  %27 = getelementptr inbounds nuw i8, ptr %0, i64 240
  store i8 1, ptr %27, align 8, !tbaa !30
  %28 = getelementptr inbounds nuw i8, ptr %0, i64 262
  store i8 1, ptr %28, align 2, !tbaa !30
  %29 = getelementptr inbounds nuw i8, ptr %0, i64 264
  store i8 1, ptr %29, align 8, !tbaa !30
  store i8 0, ptr %17, align 8, !tbaa !12
  store i32 1, ptr %26, align 8, !tbaa !170
  ret void
}